(lp0
L99160816102022657567045611146117422379057259816532836903155758821240823790549336372853097580030954072640865510811700668335736392185468863608607559306103079198724474283046298576953947536770157960528335068157564749172033205653260583243119134564194982473695367404688656774130480433810345434775353532051205066429L
aI7919
aL75406798152087440821915478005040929103003260337815474659780777828199550557733060189079600154937038189852669794937247307073848283083835521738986579383931382942255524768498994878994795267053338062847026108909636727058828030319167265223122420315418036618465266366797460490228263735007610812091360475316971265871L
aL8510986003646835671603640452964172341878694276173849771404759231951887909324763555136919782401184535163974205437560537455700815235285236192083915440878633L
aL11650919888663154575753326815110659027619581385404361693503566095977761119180548327457213028417891347774941830099050504745005740830836860402961912732727413L
aL6890255243007938311737711698945991777217364440529176775410520449052096651935984234370853987242580383247409853650738806115481490904585635715046089391523287L
aL2957235632808806755558048604416267792084273088099856926877404704244892012823955314836342743669650411545350811781675907884513390462177306403580432452681159L
aL8285810290912943450136599794728547853176457983656417099196904235684484482446895597479445276123792812531630828609810388721279618060529496015264132828670312L
aL2458209391265149801287704847572191676088723206838380125923533277901760503961485066294296634978628670467139577377082774437465860869973131419499681644971518L
a.