(lp0
L99160816102022657567045611146117422379057259816532836903155758821240823790549336372853097580030954072640865510811700668335736392185468863608607559306103079198724474283046298576953947536770157960528335068157564749172033205653260583243119134564194982473695367404688656774130480433810345434775353532051205066429L
aI7919
a.